; ModuleID = '50/2540.c'
source_filename = "50/2540.c"
target datalayout = "e-m:e-p270:32:32-p271:32:32-p272:64:64-i64:64-f80:128-n8:16:32:64-S128"
target triple = "x86_64-pc-linux-gnu"

@.str = private unnamed_addr constant [3 x i8] c"%d\00", align 1
@.str.1 = private unnamed_addr constant [4 x i8] c"%d\0A\00", align 1

; Function Attrs: noinline nounwind uwtable
define dso_local i32 @main() #0 {
  %1 = alloca i32, align 4
  %2 = alloca i32, align 4
  %3 = alloca i32, align 4
  %4 = alloca i32, align 4
  %5 = alloca [13 x i32], align 16
  store i32 0, i32* %1, align 4
  %6 = call i32 (i8*, ...) @__isoc99_scanf(i8* getelementptr inbounds ([3 x i8], [3 x i8]* @.str, i64 0, i64 0), i32* %2)
  %7 = getelementptr inbounds [13 x i32], [13 x i32]* %5, i64 0, i64 1
  store i32 31, i32* %7, align 4
  %8 = getelementptr inbounds [13 x i32], [13 x i32]* %5, i64 0, i64 2
  store i32 28, i32* %8, align 8
  %9 = getelementptr inbounds [13 x i32], [13 x i32]* %5, i64 0, i64 3
  store i32 31, i32* %9, align 4
  %10 = getelementptr inbounds [13 x i32], [13 x i32]* %5, i64 0, i64 4
  store i32 30, i32* %10, align 16
  %11 = getelementptr inbounds [13 x i32], [13 x i32]* %5, i64 0, i64 5
  store i32 31, i32* %11, align 4
  %12 = getelementptr inbounds [13 x i32], [13 x i32]* %5, i64 0, i64 6
  store i32 30, i32* %12, align 8
  %13 = getelementptr inbounds [13 x i32], [13 x i32]* %5, i64 0, i64 7
  store i32 31, i32* %13, align 4
  %14 = getelementptr inbounds [13 x i32], [13 x i32]* %5, i64 0, i64 8
  store i32 31, i32* %14, align 16
  %15 = getelementptr inbounds [13 x i32], [13 x i32]* %5, i64 0, i64 9
  store i32 30, i32* %15, align 4
  %16 = getelementptr inbounds [13 x i32], [13 x i32]* %5, i64 0, i64 10
  store i32 31, i32* %16, align 8
  %17 = getelementptr inbounds [13 x i32], [13 x i32]* %5, i64 0, i64 11
  store i32 30, i32* %17, align 4
  %18 = getelementptr inbounds [13 x i32], [13 x i32]* %5, i64 0, i64 12
  store i32 31, i32* %18, align 16
  store i32 0, i32* %3, align 4
  store i32 0, i32* %4, align 4
  br label %19

19:                                               ; preds = %53, %0
  %20 = load i32, i32* %3, align 4
  %21 = icmp sle i32 %20, 11
  br i1 %21, label %22, label %54

22:                                               ; preds = %19
  %23 = load i32, i32* %4, align 4
  %24 = add nsw i32 %23, 1
  store i32 %24, i32* %4, align 4
  %25 = load i32, i32* %3, align 4
  %26 = add nsw i32 %25, 1
  store i32 %26, i32* %3, align 4
  %27 = load i32, i32* %4, align 4
  %28 = sext i32 %27 to i64
  %29 = getelementptr inbounds [13 x i32], [13 x i32]* %5, i64 0, i64 %28
  %30 = call i32 (i8*, ...) @__isoc99_scanf(i8* getelementptr inbounds ([3 x i8], [3 x i8]* @.str, i64 0, i64 0), i32* %29)
  %31 = load i32, i32* %2, align 4
  %32 = icmp eq i32 %31, 7
  br i1 %32, label %33, label %44

33:                                               ; preds = %22
  %34 = load i32, i32* %3, align 4
  %35 = call i32 (i8*, ...) @printf(i8* getelementptr inbounds ([4 x i8], [4 x i8]* @.str.1, i64 0, i64 0), i32 %34)
  %36 = load i32, i32* %2, align 4
  %37 = load i32, i32* %4, align 4
  %38 = sext i32 %37 to i64
  %39 = getelementptr inbounds [13 x i32], [13 x i32]* %5, i64 0, i64 %38
  %40 = load i32, i32* %39, align 4
  %41 = add nsw i32 %36, %40
  %42 = srem i32 %41, 7
  %43 = add nsw i32 %42, 7
  store i32 %43, i32* %2, align 4
  br label %53

44:                                               ; preds = %22
  %45 = load i32, i32* %2, align 4
  %46 = load i32, i32* %4, align 4
  %47 = sext i32 %46 to i64
  %48 = getelementptr inbounds [13 x i32], [13 x i32]* %5, i64 0, i64 %47
  %49 = load i32, i32* %48, align 4
  %50 = add nsw i32 %45, %49
  %51 = srem i32 %50, 7
  %52 = add nsw i32 %51, 7
  store i32 %52, i32* %2, align 4
  br label %53

53:                                               ; preds = %44, %33
  br label %19

54:                                               ; preds = %19
  ret i32 0
}

declare dso_local i32 @__isoc99_scanf(i8*, ...) #1

declare dso_local i32 @printf(i8*, ...) #1


!llvm.module.flags = !{!0}
!llvm.ident = !{!1}

!0 = !{i32 1, !"wchar_size", i32 4}
!1 = !{!"clang version 10.0.0-4ubuntu1 "}
